target datalayout = "e-m:e-p270:32:32-p271:32:32-p272:64:64-i64:64-i128:128-f80:128-n8:16:32:64-S128"
target triple = "x86_64-pc-linux-gnu"

%struct.tag_ALSA_MIDIDeviceDescription = type { i32, i32, i32, ptr, ptr }

; Function Attrs: nounwind uwtable
define hidden void @freeMIDIDeviceDescription(ptr noundef %0) #0 {
  %2 = alloca ptr, align 8
  store ptr %0, ptr %2, align 8
  %3 = load ptr, ptr %2, align 8
  %4 = getelementptr inbounds %struct.tag_ALSA_MIDIDeviceDescription, ptr %3, i32 0, i32 3
  %5 = load ptr, ptr %4, align 8
  %6 = icmp ne ptr %5, null
  br i1 %6, label %7, label %11

7:                                                ; preds = %1
  %8 = load ptr, ptr %2, align 8
  %9 = getelementptr inbounds %struct.tag_ALSA_MIDIDeviceDescription, ptr %8, i32 0, i32 3
  %10 = load ptr, ptr %9, align 8
  call void @free(ptr noundef %10) #5
  br label %11

11:                                               ; preds = %7, %1
  %12 = load ptr, ptr %2, align 8
  %13 = getelementptr inbounds %struct.tag_ALSA_MIDIDeviceDescription, ptr %12, i32 0, i32 4
  %14 = load ptr, ptr %13, align 8
  %15 = icmp ne ptr %14, null
  br i1 %15, label %16, label %20

16:                                               ; preds = %11
  %17 = load ptr, ptr %2, align 8
  %18 = getelementptr inbounds %struct.tag_ALSA_MIDIDeviceDescription, ptr %17, i32 0, i32 4
  %19 = load ptr, ptr %18, align 8
  call void @free(ptr noundef %19) #5
  br label %20

20:                                               ; preds = %16, %11
  ret void
}

; Function Attrs: nounwind uwtable
define internal i32 @getMIDIDeviceDescriptionByIndex(i32 noundef %0, ptr noundef %1) #0 {
  %3 = alloca i32, align 4
  %4 = alloca ptr, align 8
  store i32 %0, ptr %3, align 4
  store ptr %1, ptr %4, align 8
  call void (...) @initAlsaSupport()
  %5 = load i32, ptr %3, align 4
  %6 = load ptr, ptr %4, align 8
  %7 = call i32 @iterateRawmidiDevices(i32 noundef %5, ptr noundef @deviceInfoIterator, ptr noundef %6)
  %8 = load ptr, ptr %4, align 8
  %9 = getelementptr inbounds %struct.tag_ALSA_MIDIDeviceDescription, ptr %8, i32 0, i32 0
  %10 = load i32, ptr %9, align 8
  %11 = icmp eq i32 %10, 0
  %12 = select i1 %11, i32 0, i32 -11112
  ret i32 %12
}

; Function Attrs: nounwind uwtable
define hidden i32 @initMIDIDeviceDescription(ptr noundef %0, i32 noundef %1) #0 {
  %3 = alloca ptr, align 8
  %4 = alloca i32, align 4
  %5 = alloca i32, align 4
  store ptr %0, ptr %3, align 8
  store i32 %1, ptr %4, align 4
  store i32 0, ptr %5, align 4
  %6 = load i32, ptr %4, align 4
  %7 = load ptr, ptr %3, align 8
  %8 = getelementptr inbounds %struct.tag_ALSA_MIDIDeviceDescription, ptr %7, i32 0, i32 0
  store i32 %6, ptr %8, align 8
  %9 = load ptr, ptr %3, align 8
  %10 = getelementptr inbounds %struct.tag_ALSA_MIDIDeviceDescription, ptr %9, i32 0, i32 1
  store i32 200, ptr %10, align 4
  %11 = load ptr, ptr %3, align 8
  %12 = getelementptr inbounds %struct.tag_ALSA_MIDIDeviceDescription, ptr %11, i32 0, i32 1
  %13 = load i32, ptr %12, align 4
  %14 = add nsw i32 %13, 1
  %15 = sext i32 %14 to i64
  %16 = call noalias ptr @calloc(i64 noundef %15, i64 noundef 1) #6
  %17 = load ptr, ptr %3, align 8
  %18 = getelementptr inbounds %struct.tag_ALSA_MIDIDeviceDescription, ptr %17, i32 0, i32 3
  store ptr %16, ptr %18, align 8
  %19 = load ptr, ptr %3, align 8
  %20 = getelementptr inbounds %struct.tag_ALSA_MIDIDeviceDescription, ptr %19, i32 0, i32 1
  %21 = load i32, ptr %20, align 4
  %22 = add nsw i32 %21, 1
  %23 = sext i32 %22 to i64
  %24 = call noalias ptr @calloc(i64 noundef %23, i64 noundef 1) #6
  %25 = load ptr, ptr %3, align 8
  %26 = getelementptr inbounds %struct.tag_ALSA_MIDIDeviceDescription, ptr %25, i32 0, i32 4
  store ptr %24, ptr %26, align 8
  %27 = load ptr, ptr %3, align 8
  %28 = getelementptr inbounds %struct.tag_ALSA_MIDIDeviceDescription, ptr %27, i32 0, i32 3
  %29 = load ptr, ptr %28, align 8
  %30 = icmp ne ptr %29, null
  br i1 %30, label %31, label %36

31:                                               ; preds = %2
  %32 = load ptr, ptr %3, align 8
  %33 = getelementptr inbounds %struct.tag_ALSA_MIDIDeviceDescription, ptr %32, i32 0, i32 4
  %34 = load ptr, ptr %33, align 8
  %35 = icmp ne ptr %34, null
  br i1 %35, label %37, label %36

36:                                               ; preds = %31, %2
  store i32 -11115, ptr %5, align 4
  br label %37

37:                                               ; preds = %36, %31
  %38 = load i32, ptr %5, align 4
  ret i32 %38
}

; Function Attrs: nounwind uwtable
define hidden i32 @getMidiDeviceDescription(i32 noundef %0, i32 noundef %1, ptr noundef %2, i32 noundef %3) #0 {
  %5 = alloca i32, align 4
  %6 = alloca i32, align 4
  %7 = alloca ptr, align 8
  %8 = alloca i32, align 4
  %9 = alloca %struct.tag_ALSA_MIDIDeviceDescription, align 8
  %10 = alloca i32, align 4
  store i32 %0, ptr %5, align 4
  store i32 %1, ptr %6, align 4
  store ptr %2, ptr %7, align 8
  store i32 %3, ptr %8, align 4
  %11 = load i32, ptr %6, align 4
  %12 = call i32 @initMIDIDeviceDescription(ptr noundef %9, i32 noundef %11)
  store i32 %12, ptr %10, align 4
  %13 = load i32, ptr %10, align 4
  %14 = icmp eq i32 %13, 0
  br i1 %14, label %15, label %34

15:                                               ; preds = %4
  %16 = load i32, ptr %5, align 4
  %17 = call i32 @getMIDIDeviceDescriptionByIndex(i32 noundef %16, ptr noundef %9)
  store i32 %17, ptr %10, align 4
  %18 = load i32, ptr %10, align 4
  %19 = icmp eq i32 %18, 0
  br i1 %19, label %20, label %33

20:                                               ; preds = %15
  %21 = load ptr, ptr %7, align 8
  %22 = getelementptr inbounds %struct.tag_ALSA_MIDIDeviceDescription, ptr %9, i32 0, i32 4
  %23 = load ptr, ptr %22, align 8
  %24 = load i32, ptr %8, align 4
  %25 = sub i32 %24, 1
  %26 = zext i32 %25 to i64
  %27 = call ptr @strncpy(ptr noundef %21, ptr noundef %23, i64 noundef %26) #5
  %28 = load ptr, ptr %7, align 8
  %29 = load i32, ptr %8, align 4
  %30 = sub i32 %29, 1
  %31 = zext i32 %30 to i64
  %32 = getelementptr inbounds i8, ptr %28, i64 %31
  store i8 0, ptr %32, align 1
  br label %33

33:                                               ; preds = %20, %15
  br label %34

34:                                               ; preds = %33, %4
  call void @freeMIDIDeviceDescription(ptr noundef %9)
  %35 = load i32, ptr %10, align 4
  ret i32 %35
}