; Function Attrs: nounwind uwtable
define hidden range(i32 -11115, 1) i32 @getMidiDeviceDescription(i32 noundef %0, i32 noundef %1, ptr noundef %2, i32 noundef %3) local_unnamed_addr #0 {
  %5 = alloca %struct.tag_ALSA_MIDIDeviceDescription, align 8
  store i32 %1, ptr %5, align 8
  %6 = getelementptr inbounds i8, ptr %5, i64 4
  store i32 200, ptr %6, align 4
  %7 = tail call noalias dereferenceable_or_null(201) ptr @calloc(i64 noundef 201, i64 noundef 1) #13
  %8 = getelementptr inbounds i8, ptr %5, i64 16
  store ptr %7, ptr %8, align 8
  %9 = tail call noalias dereferenceable_or_null(201) ptr @calloc(i64 noundef 201, i64 noundef 1) #13
  %10 = getelementptr inbounds i8, ptr %5, i64 24
  store ptr %9, ptr %10, align 8
  %.not.i = icmp ne ptr %7, null
  %.not9.i = icmp ne ptr %9, null
  %or.cond.i.not = and i1 %.not.i, %.not9.i
  br i1 %or.cond.i.not, label %11, label %21

11:                                               ; preds = %4
  tail call void (...) @initAlsaSupport() #12
  %12 = call fastcc i32 @iterateRawmidiDevices(i32 noundef %0, ptr noundef nonnull @deviceInfoIterator, ptr noundef nonnull %5)
  %13 = load i32, ptr %5, align 8
  %14 = icmp eq i32 %13, 0
  br i1 %14, label %15, label %21

15:                                               ; preds = %11
  %16 = load ptr, ptr %10, align 8
  %17 = add i32 %3, -1
  %18 = zext i32 %17 to i64
  %19 = call ptr @strncpy(ptr noundef %2, ptr noundef %16, i64 noundef %18) #12
  %20 = getelementptr inbounds i8, ptr %2, i64 %18
  store i8 0, ptr %20, align 1
  br label %21

21:                                               ; preds = %11, %15, %4
  %.0 = phi i32 [ 0, %15 ], [ -11112, %11 ], [ -11115, %4 ]
  %22 = load ptr, ptr %8, align 8
  %.not.i10 = icmp eq ptr %22, null
  br i1 %.not.i10, label %24, label %23

23:                                               ; preds = %21
  call void @free(ptr noundef nonnull %22) #12
  br label %24

24:                                               ; preds = %23, %21
  %25 = load ptr, ptr %10, align 8
  %.not5.i = icmp eq ptr %25, null
  br i1 %.not5.i, label %freeMIDIDeviceDescription.exit, label %26

26:                                               ; preds = %24
  call void @free(ptr noundef nonnull %25) #12
  br label %freeMIDIDeviceDescription.exit

freeMIDIDeviceDescription.exit:                   ; preds = %24, %26
  ret i32 %.0
}